; Function Attrs: nounwind uwtable
define ptr @redisvCommand(ptr noundef %0, ptr noundef %1, ptr noundef %2) local_unnamed_addr #0 {
  %4 = alloca ptr, align 8
  %5 = alloca ptr, align 8
  call void @llvm.lifetime.start.p0(i64 8, ptr nonnull %5) #13
  %6 = call i32 @redisvFormatCommand(ptr noundef nonnull %5, ptr noundef %1, ptr noundef %2)
  switch i32 %6, label %15 [
    i32 -1, label %7
    i32 -2, label %11
  ]

7:                                                ; preds = %3
  %8 = getelementptr inbounds nuw i8, ptr %0, i64 8
  store i32 5, ptr %8, align 8, !tbaa !32
  %9 = getelementptr inbounds nuw i8, ptr %0, i64 12
  call void @llvm.memcpy.p0.p0.i64(ptr noundef nonnull align 4 dereferenceable(13) %9, ptr noundef nonnull align 1 dereferenceable(13) @.str.7, i64 13, i1 false)
  %10 = getelementptr inbounds nuw i8, ptr %0, i64 25
  store i8 0, ptr %10, align 1, !tbaa !22
  br label %redisvAppendCommand.exit.thread

11:                                               ; preds = %3
  %12 = getelementptr inbounds nuw i8, ptr %0, i64 8
  store i32 2, ptr %12, align 8, !tbaa !32
  %13 = getelementptr inbounds nuw i8, ptr %0, i64 12
  call void @llvm.memcpy.p0.p0.i64(ptr noundef nonnull align 4 dereferenceable(21) %13, ptr noundef nonnull align 1 dereferenceable(21) @.str.9, i64 21, i1 false)
  %14 = getelementptr inbounds nuw i8, ptr %0, i64 33
  store i8 0, ptr %14, align 1, !tbaa !22
  br label %redisvAppendCommand.exit.thread

15:                                               ; preds = %3
  %16 = load ptr, ptr %5, align 8, !tbaa !24
  %17 = sext i32 %6 to i64
  %18 = getelementptr inbounds nuw i8, ptr %0, i64 152
  %19 = load ptr, ptr %18, align 8, !tbaa !43
  %20 = call ptr @hi_sdscatlen(ptr noundef %19, ptr noundef %16, i64 noundef %17) #13
  %21 = icmp eq ptr %20, null
  br i1 %21, label %22, label %28

22:                                               ; preds = %15
  %23 = getelementptr inbounds nuw i8, ptr %0, i64 8
  store i32 5, ptr %23, align 8, !tbaa !32
  %24 = getelementptr inbounds nuw i8, ptr %0, i64 12
  call void @llvm.memcpy.p0.p0.i64(ptr noundef nonnull align 4 dereferenceable(13) %24, ptr noundef nonnull align 1 dereferenceable(13) @.str.7, i64 13, i1 false)
  %25 = getelementptr inbounds nuw i8, ptr %0, i64 25
  store i8 0, ptr %25, align 1, !tbaa !22
  %26 = load ptr, ptr %5, align 8, !tbaa !24
  %27 = load ptr, ptr getelementptr inbounds nuw (i8, ptr @hiredisAllocFns, i64 32), align 8, !tbaa !20
  call void %27(ptr noundef %26) #13
  br label %redisvAppendCommand.exit.thread

redisvAppendCommand.exit.thread:                  ; preds = %7, %11, %22
  call void @llvm.lifetime.end.p0(i64 8, ptr nonnull %5) #13
  br label %37

28:                                               ; preds = %15
  store ptr %20, ptr %18, align 8, !tbaa !43
  %29 = load ptr, ptr %5, align 8, !tbaa !24
  %30 = load ptr, ptr getelementptr inbounds nuw (i8, ptr @hiredisAllocFns, i64 32), align 8, !tbaa !20
  call void %30(ptr noundef %29) #13
  call void @llvm.lifetime.end.p0(i64 8, ptr nonnull %5) #13
  call void @llvm.lifetime.start.p0(i64 8, ptr nonnull %4) #13
  %31 = getelementptr inbounds nuw i8, ptr %0, i64 144
  %32 = load i32, ptr %31, align 8, !tbaa !58
  %33 = and i32 %32, 1
  %.not.i = icmp eq i32 %33, 0
  br i1 %.not.i, label %__redisBlockForReply.exit, label %34

34:                                               ; preds = %28
  %35 = call i32 @redisGetReply(ptr noundef nonnull %0, ptr noundef nonnull %4)
  %.not3.i = icmp eq i32 %35, 0
  %36 = load ptr, ptr %4, align 8
  %spec.select.i = select i1 %.not3.i, ptr %36, ptr null
  br label %__redisBlockForReply.exit

__redisBlockForReply.exit:                        ; preds = %28, %34
  %.0.i5 = phi ptr [ null, %28 ], [ %spec.select.i, %34 ]
  call void @llvm.lifetime.end.p0(i64 8, ptr nonnull %4) #13
  br label %37

37:                                               ; preds = %redisvAppendCommand.exit.thread, %__redisBlockForReply.exit
  %.0 = phi ptr [ %.0.i5, %__redisBlockForReply.exit ], [ null, %redisvAppendCommand.exit.thread ]
  ret ptr %.0
}